; ModuleID = '31/199.c'
source_filename = "31/199.c"
target datalayout = "e-m:e-p270:32:32-p271:32:32-p272:64:64-i64:64-f80:128-n8:16:32:64-S128"
target triple = "x86_64-pc-linux-gnu"

%struct.stu = type { [1000 x i8], %struct.stu* }

@pend = common dso_local global %struct.stu* null, align 8
@phead = common dso_local global %struct.stu* null, align 8
@p2 = common dso_local global %struct.stu* null, align 8
@p1 = common dso_local global %struct.stu* null, align 8

; Function Attrs: noinline nounwind uwtable
define dso_local void @print() #0 {
  %1 = alloca %struct.stu*, align 8
  %2 = load %struct.stu*, %struct.stu** @pend, align 8
  store %struct.stu* %2, %struct.stu** %1, align 8
  br label %3

3:                                                ; preds = %7, %0
  %4 = load %struct.stu*, %struct.stu** %1, align 8
  %5 = load %struct.stu*, %struct.stu** @phead, align 8
  %6 = icmp ne %struct.stu* %4, %5
  br i1 %6, label %7, label %15

7:                                                ; preds = %3
  %8 = load %struct.stu*, %struct.stu** %1, align 8
  %9 = getelementptr inbounds %struct.stu, %struct.stu* %8, i32 0, i32 0
  %10 = getelementptr inbounds [1000 x i8], [1000 x i8]* %9, i64 0, i64 0
  %11 = call i32 @puts(i8* %10)
  %12 = load %struct.stu*, %struct.stu** %1, align 8
  %13 = getelementptr inbounds %struct.stu, %struct.stu* %12, i32 0, i32 1
  %14 = load %struct.stu*, %struct.stu** %13, align 8
  store %struct.stu* %14, %struct.stu** %1, align 8
  br label %3

15:                                               ; preds = %3
  %16 = load %struct.stu*, %struct.stu** %1, align 8
  %17 = getelementptr inbounds %struct.stu, %struct.stu* %16, i32 0, i32 0
  %18 = getelementptr inbounds [1000 x i8], [1000 x i8]* %17, i64 0, i64 0
  %19 = call i32 @puts(i8* %18)
  ret void
}

declare dso_local i32 @puts(i8*) #1

; Function Attrs: noinline nounwind uwtable
define dso_local i32 @main() #0 {
  %1 = alloca i32, align 4
  store i32 0, i32* %1, align 4
  %2 = call noalias i8* @malloc(i64 1008) #3
  %3 = bitcast i8* %2 to %struct.stu*
  store %struct.stu* %3, %struct.stu** @phead, align 8
  store %struct.stu* %3, %struct.stu** @p2, align 8
  store %struct.stu* %3, %struct.stu** @p1, align 8
  br label %4

4:                                                ; preds = %19, %0
  %5 = load %struct.stu*, %struct.stu** @p1, align 8
  %6 = getelementptr inbounds %struct.stu, %struct.stu* %5, i32 0, i32 0
  %7 = getelementptr inbounds [1000 x i8], [1000 x i8]* %6, i64 0, i64 0
  %8 = call i32 (i8*, ...) bitcast (i32 (...)* @gets to i32 (i8*, ...)*)(i8* %7)
  %9 = load %struct.stu*, %struct.stu** @p1, align 8
  %10 = getelementptr inbounds %struct.stu, %struct.stu* %9, i32 0, i32 0
  %11 = getelementptr inbounds [1000 x i8], [1000 x i8]* %10, i64 0, i64 0
  %12 = load i8, i8* %11, align 8
  %13 = sext i8 %12 to i32
  %14 = icmp eq i32 %13, 101
  br i1 %14, label %15, label %19

15:                                               ; preds = %4
  %16 = load %struct.stu*, %struct.stu** @p1, align 8
  %17 = getelementptr inbounds %struct.stu, %struct.stu* %16, i32 0, i32 1
  %18 = load %struct.stu*, %struct.stu** %17, align 8
  store %struct.stu* %18, %struct.stu** @pend, align 8
  br label %26

19:                                               ; preds = %4
  %20 = call noalias i8* @malloc(i64 1008) #3
  %21 = bitcast i8* %20 to %struct.stu*
  store %struct.stu* %21, %struct.stu** @p1, align 8
  %22 = load %struct.stu*, %struct.stu** @p2, align 8
  %23 = load %struct.stu*, %struct.stu** @p1, align 8
  %24 = getelementptr inbounds %struct.stu, %struct.stu* %23, i32 0, i32 1
  store %struct.stu* %22, %struct.stu** %24, align 8
  %25 = load %struct.stu*, %struct.stu** @p1, align 8
  store %struct.stu* %25, %struct.stu** @p2, align 8
  br label %4

26:                                               ; preds = %15
  call void @print()
  %27 = load i32, i32* %1, align 4
  ret i32 %27
}

; Function Attrs: nounwind
declare dso_local noalias i8* @malloc(i64) #2

declare dso_local i32 @gets(...) #1


!llvm.module.flags = !{!0}
!llvm.ident = !{!1}

!0 = !{i32 1, !"wchar_size", i32 4}
!1 = !{!"clang version 10.0.0-4ubuntu1 "}
